; Function Attrs: nounwind uwtable
define hidden zeroext range(i8 0, 2) i8 @GetApplicationHome(ptr noundef %0, i32 noundef %1) local_unnamed_addr #0 {
  %3 = tail call ptr (...) @GetExecName() #14
  %.not = icmp eq ptr %3, null
  br i1 %.not, label %TruncatePath.exit, label %4

4:                                                ; preds = %2
  %5 = sext i32 %1 to i64
  %6 = tail call i32 (ptr, i64, ptr, ...) @snprintf(ptr noundef %0, i64 noundef %5, ptr noundef nonnull @.str, ptr noundef nonnull %3) #14
  %7 = getelementptr i8, ptr %0, i64 %5
  %8 = getelementptr i8, ptr %7, i64 -1
  store i8 0, ptr %8, align 1
  %9 = tail call ptr @strstr(ptr noundef nonnull readonly dereferenceable(1) %0, ptr noundef nonnull readonly dereferenceable(1) @.str.10) #15
  %.not11.i.i = icmp eq ptr %9, null
  br i1 %.not11.i.i, label %12, label %.lr.ph.i.i

.lr.ph.i.i:                                       ; preds = %4, %.lr.ph.i.i
  %.012.i.i = phi ptr [ %11, %.lr.ph.i.i ], [ %9, %4 ]
  %10 = getelementptr inbounds i8, ptr %.012.i.i, i64 5
  %11 = tail call ptr @strstr(ptr noundef nonnull dereferenceable(1) %10, ptr noundef nonnull readonly dereferenceable(1) @.str.10) #15
  %.not.i.i = icmp eq ptr %11, null
  br i1 %.not.i.i, label %findLastPathComponent.exit17.thread.sink.split.i, label %.lr.ph.i.i, !llvm.loop !6

12:                                               ; preds = %4
  %13 = tail call ptr @strstr(ptr noundef nonnull readonly dereferenceable(1) %0, ptr noundef nonnull readonly dereferenceable(1) @.str.9) #15
  %.not11.i12.i = icmp eq ptr %13, null
  br i1 %.not11.i12.i, label %TruncatePath.exit, label %.lr.ph.i13.i

.lr.ph.i13.i:                                     ; preds = %12, %.lr.ph.i13.i
  %.012.i14.i = phi ptr [ %15, %.lr.ph.i13.i ], [ %13, %12 ]
  %14 = getelementptr inbounds i8, ptr %.012.i14.i, i64 5
  %15 = tail call ptr @strstr(ptr noundef nonnull dereferenceable(1) %14, ptr noundef nonnull readonly dereferenceable(1) @.str.9) #15
  %.not.i15.i = icmp eq ptr %15, null
  br i1 %.not.i15.i, label %findLastPathComponent.exit17.thread.sink.split.i, label %.lr.ph.i13.i, !llvm.loop !6

findLastPathComponent.exit17.thread.sink.split.i: ; preds = %.lr.ph.i.i, %.lr.ph.i13.i
  %.012.i14.lcssa.sink.i = phi ptr [ %.012.i14.i, %.lr.ph.i13.i ], [ %.012.i.i, %.lr.ph.i.i ]
  store i8 0, ptr %.012.i14.lcssa.sink.i, align 1
  br label %TruncatePath.exit

TruncatePath.exit:                                ; preds = %findLastPathComponent.exit17.thread.sink.split.i, %12, %2
  %.0 = phi i8 [ 0, %2 ], [ 0, %12 ], [ 1, %findLastPathComponent.exit17.thread.sink.split.i ]
  ret i8 %.0
}